target datalayout = "e-m:e-p270:32:32-p271:32:32-p272:64:64-i64:64-i128:128-f80:128-n8:16:32:64-S128"
target triple = "x86_64-pc-linux-gnu"

%struct.Abc_Ntk_t_ = type { i32, i32, ptr, ptr, ptr, ptr, ptr, ptr, ptr, ptr, ptr, ptr, ptr, [11 x i32], i32, i32, i32, i32, ptr, i32, ptr, ptr, i32, i32, i32, double, i32, %struct.Vec_Int_t_, ptr, ptr, ptr, ptr, ptr, float, i32, ptr, ptr, ptr, ptr, ptr, ptr, ptr, ptr, ptr, ptr, ptr, ptr, ptr, ptr, ptr, ptr, ptr, ptr, ptr, ptr, ptr }
%struct.Vec_Int_t_ = type { i32, i32, ptr }
%struct.Abc_ManTime_t_ = type { %struct.Abc_Time_t_, %struct.Abc_Time_t_, ptr, ptr, %struct.Abc_Time_t_, %struct.Abc_Time_t_, ptr, ptr }
%struct.Abc_Time_t_ = type { float, float }
%struct.Vec_Ptr_t_ = type { i32, i32, ptr }

; Function Attrs: nounwind uwtable
define internal i32 @Vec_PtrSize(ptr noundef %0) #0 {
  %2 = alloca ptr, align 8
  store ptr %0, ptr %2, align 8
  %3 = load ptr, ptr %2, align 8
  %4 = getelementptr inbounds %struct.Vec_Ptr_t_, ptr %3, i32 0, i32 1
  %5 = load i32, ptr %4, align 4
  ret i32 %5
}

; Function Attrs: nounwind uwtable
define internal i32 @Abc_NtkCoNum(ptr noundef %0) #0 {
  %2 = alloca ptr, align 8
  store ptr %0, ptr %2, align 8
  %3 = load ptr, ptr %2, align 8
  %4 = getelementptr inbounds %struct.Abc_Ntk_t_, ptr %3, i32 0, i32 9
  %5 = load ptr, ptr %4, align 8
  %6 = call i32 @Vec_PtrSize(ptr noundef %5)
  ret i32 %6
}

; Function Attrs: nounwind uwtable
define void @Abc_NtkTimeSetOutputLoad(ptr noundef %0, i32 noundef %1, float noundef %2, float noundef %3) #0 {
  %5 = alloca ptr, align 8
  %6 = alloca i32, align 4
  %7 = alloca float, align 4
  %8 = alloca float, align 4
  %9 = alloca ptr, align 8
  %10 = alloca i32, align 4
  store ptr %0, ptr %5, align 8
  store i32 %1, ptr %6, align 4
  store float %2, ptr %7, align 4
  store float %3, ptr %8, align 4
  %11 = load ptr, ptr %5, align 8
  %12 = getelementptr inbounds %struct.Abc_Ntk_t_, ptr %11, i32 0, i32 31
  %13 = load ptr, ptr %12, align 8
  %14 = icmp eq ptr %13, null
  br i1 %14, label %15, label %20

15:                                               ; preds = %4
  %16 = load ptr, ptr %5, align 8
  %17 = call ptr @Abc_ManTimeStart(ptr noundef %16)
  %18 = load ptr, ptr %5, align 8
  %19 = getelementptr inbounds %struct.Abc_Ntk_t_, ptr %18, i32 0, i32 31
  store ptr %17, ptr %19, align 8
  br label %20

20:                                               ; preds = %15, %4
  %21 = load ptr, ptr %5, align 8
  %22 = getelementptr inbounds %struct.Abc_Ntk_t_, ptr %21, i32 0, i32 31
  %23 = load ptr, ptr %22, align 8
  %24 = getelementptr inbounds %struct.Abc_ManTime_t_, ptr %23, i32 0, i32 5
  %25 = getelementptr inbounds %struct.Abc_Time_t_, ptr %24, i32 0, i32 0
  %26 = load float, ptr %25, align 8
  %27 = load float, ptr %7, align 4
  %28 = fcmp oeq float %26, %27
  br i1 %28, label %29, label %39

29:                                               ; preds = %20
  %30 = load ptr, ptr %5, align 8
  %31 = getelementptr inbounds %struct.Abc_Ntk_t_, ptr %30, i32 0, i32 31
  %32 = load ptr, ptr %31, align 8
  %33 = getelementptr inbounds %struct.Abc_ManTime_t_, ptr %32, i32 0, i32 5
  %34 = getelementptr inbounds %struct.Abc_Time_t_, ptr %33, i32 0, i32 1
  %35 = load float, ptr %34, align 4
  %36 = load float, ptr %8, align 4
  %37 = fcmp oeq float %35, %36
  br i1 %37, label %38, label %39

38:                                               ; preds = %29
  br label %92

39:                                               ; preds = %29, %20
  %40 = load ptr, ptr %5, align 8
  %41 = getelementptr inbounds %struct.Abc_Ntk_t_, ptr %40, i32 0, i32 31
  %42 = load ptr, ptr %41, align 8
  %43 = getelementptr inbounds %struct.Abc_ManTime_t_, ptr %42, i32 0, i32 7
  %44 = load ptr, ptr %43, align 8
  %45 = icmp eq ptr %44, null
  br i1 %45, label %46, label %77

46:                                               ; preds = %39
  %47 = load ptr, ptr %5, align 8
  %48 = call i32 @Abc_NtkCoNum(ptr noundef %47)
  %49 = sext i32 %48 to i64
  %50 = call noalias ptr @calloc(i64 noundef %49, i64 noundef 8) #12
  %51 = load ptr, ptr %5, align 8
  %52 = getelementptr inbounds %struct.Abc_Ntk_t_, ptr %51, i32 0, i32 31
  %53 = load ptr, ptr %52, align 8
  %54 = getelementptr inbounds %struct.Abc_ManTime_t_, ptr %53, i32 0, i32 7
  store ptr %50, ptr %54, align 8
  store i32 0, ptr %10, align 4
  br label %55

55:                                               ; preds = %73, %46
  %56 = load i32, ptr %10, align 4
  %57 = load ptr, ptr %5, align 8
  %58 = call i32 @Abc_NtkCoNum(ptr noundef %57)
  %59 = icmp slt i32 %56, %58
  br i1 %59, label %60, label %76

60:                                               ; preds = %55
  %61 = load ptr, ptr %5, align 8
  %62 = getelementptr inbounds %struct.Abc_Ntk_t_, ptr %61, i32 0, i32 31
  %63 = load ptr, ptr %62, align 8
  %64 = getelementptr inbounds %struct.Abc_ManTime_t_, ptr %63, i32 0, i32 7
  %65 = load ptr, ptr %64, align 8
  %66 = load i32, ptr %10, align 4
  %67 = sext i32 %66 to i64
  %68 = getelementptr inbounds %struct.Abc_Time_t_, ptr %65, i64 %67
  %69 = load ptr, ptr %5, align 8
  %70 = getelementptr inbounds %struct.Abc_Ntk_t_, ptr %69, i32 0, i32 31
  %71 = load ptr, ptr %70, align 8
  %72 = getelementptr inbounds %struct.Abc_ManTime_t_, ptr %71, i32 0, i32 5
  call void @llvm.memcpy.p0.p0.i64(ptr align 4 %68, ptr align 8 %72, i64 8, i1 false)
  br label %73

73:                                               ; preds = %60
  %74 = load i32, ptr %10, align 4
  %75 = add nsw i32 %74, 1
  store i32 %75, ptr %10, align 4
  br label %55, !llvm.loop !16

76:                                               ; preds = %55
  br label %77

77:                                               ; preds = %76, %39
  %78 = load ptr, ptr %5, align 8
  %79 = getelementptr inbounds %struct.Abc_Ntk_t_, ptr %78, i32 0, i32 31
  %80 = load ptr, ptr %79, align 8
  %81 = getelementptr inbounds %struct.Abc_ManTime_t_, ptr %80, i32 0, i32 7
  %82 = load ptr, ptr %81, align 8
  %83 = load i32, ptr %6, align 4
  %84 = sext i32 %83 to i64
  %85 = getelementptr inbounds %struct.Abc_Time_t_, ptr %82, i64 %84
  store ptr %85, ptr %9, align 8
  %86 = load float, ptr %7, align 4
  %87 = load ptr, ptr %9, align 8
  %88 = getelementptr inbounds %struct.Abc_Time_t_, ptr %87, i32 0, i32 0
  store float %86, ptr %88, align 4
  %89 = load float, ptr %8, align 4
  %90 = load ptr, ptr %9, align 8
  %91 = getelementptr inbounds %struct.Abc_Time_t_, ptr %90, i32 0, i32 1
  store float %89, ptr %91, align 4
  br label %92

92:                                               ; preds = %77, %38
  ret void
}